target datalayout = "e-m:e-p270:32:32-p271:32:32-p272:64:64-i64:64-i128:128-f80:128-n8:16:32:64-S128"
target triple = "x86_64-pc-linux-gnu"

%class.QString = type { ptr }

@.str.27 = private unnamed_addr constant [15 x i8] c"Unknown Filter\00", align 1

; Function Attrs: mustprogress uwtable
define linkonce_odr void @_ZN7QStringC2EPKc(ptr noundef nonnull align 8 dereferenceable(8) %0, ptr noundef %1) unnamed_addr #5 comdat align 2 {
  %3 = alloca ptr, align 8
  %4 = alloca ptr, align 8
  store ptr %0, ptr %3, align 8
  store ptr %1, ptr %4, align 8
  %5 = load ptr, ptr %3, align 8
  %6 = getelementptr inbounds %class.QString, ptr %5, i32 0, i32 0
  %7 = load ptr, ptr %4, align 8
  %8 = load ptr, ptr %4, align 8
  %9 = icmp ne ptr %8, null
  br i1 %9, label %10, label %14

10:                                               ; preds = %2
  %11 = load ptr, ptr %4, align 8
  %12 = call i64 @strlen(ptr noundef %11) #16
  %13 = trunc i64 %12 to i32
  br label %15

14:                                               ; preds = %2
  br label %15

15:                                               ; preds = %14, %10
  %16 = phi i32 [ %13, %10 ], [ -1, %14 ]
  %17 = call noundef ptr @_ZN7QString16fromAscii_helperEPKci(ptr noundef %7, i32 noundef %16)
  store ptr %17, ptr %6, align 8
  ret void
}

; Function Attrs: mustprogress uwtable
define void @_ZNK17FilterIONXSPlugin10filterInfoEi(ptr dead_on_unwind noalias writable sret(%class.QString) align 8 %0, ptr noundef nonnull align 8 dereferenceable(96) %1, i32 noundef %2) unnamed_addr #5 align 2 personality ptr @__gxx_personality_v0 {
  %4 = alloca ptr, align 8
  %5 = alloca ptr, align 8
  %6 = alloca i32, align 4
  %7 = alloca %class.QString, align 8
  %8 = alloca ptr, align 8
  %9 = alloca i32, align 4
  %10 = alloca i32, align 4
  store ptr %0, ptr %4, align 8
  store ptr %1, ptr %5, align 8
  store i32 %2, ptr %6, align 4
  call void @_ZN7QStringC2EPKc(ptr noundef nonnull align 8 dereferenceable(8) %7, ptr noundef @.str.24)
  %11 = load i32, ptr %6, align 4
  switch i32 %11, label %20 [
    i32 0, label %12
    i32 1, label %18
  ]

12:                                               ; preds = %3
  invoke void @_ZplRK7QStringPKc(ptr dead_on_unwind writable sret(%class.QString) align 8 %0, ptr noundef nonnull align 8 dereferenceable(8) %7, ptr noundef @.str.25)
          to label %13 unwind label %14

13:                                               ; preds = %12
  store i32 1, ptr %10, align 4
  br label %22

14:                                               ; preds = %20, %18, %12
  %15 = landingpad { ptr, i32 }
          cleanup
  %16 = extractvalue { ptr, i32 } %15, 0
  store ptr %16, ptr %8, align 8
  %17 = extractvalue { ptr, i32 } %15, 1
  store i32 %17, ptr %9, align 4
  call void @_ZN7QStringD2Ev(ptr noundef nonnull align 8 dereferenceable(8) %7) #3
  br label %23

18:                                               ; preds = %3
  invoke void @_ZplRK7QStringPKc(ptr dead_on_unwind writable sret(%class.QString) align 8 %0, ptr noundef nonnull align 8 dereferenceable(8) %7, ptr noundef @.str.26)
          to label %19 unwind label %14

19:                                               ; preds = %18
  store i32 1, ptr %10, align 4
  br label %22

20:                                               ; preds = %3
  invoke void @_ZN7QStringC2EPKc(ptr noundef nonnull align 8 dereferenceable(8) %0, ptr noundef @.str.27)
          to label %21 unwind label %14

21:                                               ; preds = %20
  store i32 1, ptr %10, align 4
  br label %22

22:                                               ; preds = %21, %19, %13
  call void @_ZN7QStringD2Ev(ptr noundef nonnull align 8 dereferenceable(8) %7) #3
  ret void

23:                                               ; preds = %14
  %24 = load ptr, ptr %8, align 8
  %25 = load i32, ptr %9, align 4
  %26 = insertvalue { ptr, i32 } poison, ptr %24, 0
  %27 = insertvalue { ptr, i32 } %26, i32 %25, 1
  resume { ptr, i32 } %27
}