; Function Attrs: mustprogress uwtable
define void @_ZNK17FilterIONXSPlugin10filterInfoEi(ptr dead_on_unwind noalias writable sret(%class.QString) align 8 %0, ptr nocapture nonnull readnone align 8 %1, i32 noundef %2) unnamed_addr #9 align 2 personality ptr @__gxx_personality_v0 {
  %4 = alloca %class.QString, align 8
  %5 = tail call noundef ptr @_ZN7QString16fromAscii_helperEPKci(ptr noundef nonnull @.str.24, i32 noundef 324)
  store ptr %5, ptr %4, align 8
  switch i32 %2, label %10 [
    i32 0, label %6
    i32 1, label %.invoke
  ]

6:                                                ; preds = %3
  br label %.invoke

7:                                                ; preds = %.invoke, %10
  %8 = landingpad { ptr, i32 }
          cleanup
  call void @_ZN7QStringD2Ev(ptr noundef nonnull align 8 dereferenceable(8) %4) #26
  resume { ptr, i32 } %8

.invoke:                                          ; preds = %3, %6
  %9 = phi ptr [ @.str.25, %6 ], [ @.str.26, %3 ]
  invoke void @_ZplRK7QStringPKc(ptr dead_on_unwind writable sret(%class.QString) align 8 %0, ptr noundef nonnull align 8 dereferenceable(8) %4, ptr noundef nonnull %9)
          to label %12 unwind label %7

10:                                               ; preds = %3
  %11 = invoke noundef ptr @_ZN7QString16fromAscii_helperEPKci(ptr noundef nonnull @.str.27, i32 noundef 14)
          to label %_ZN7QStringC2EPKc.exit unwind label %7

_ZN7QStringC2EPKc.exit:                           ; preds = %10
  store ptr %11, ptr %0, align 8
  br label %12

12:                                               ; preds = %.invoke, %_ZN7QStringC2EPKc.exit
  %13 = load ptr, ptr %4, align 8
  %14 = load atomic i32, ptr %13 monotonic, align 4
  switch i32 %14, label %_ZN9QtPrivate8RefCount5derefEv.exit.i [
    i32 0, label %_ZN9QtPrivate8RefCount5derefEv.exit.thread2.i
    i32 -1, label %_ZN7QStringD2Ev.exit
  ]

_ZN9QtPrivate8RefCount5derefEv.exit.i:            ; preds = %12
  %15 = atomicrmw sub ptr %13, i32 1 seq_cst, align 4
  %.not.i = icmp eq i32 %15, 1
  br i1 %.not.i, label %_ZN9QtPrivate8RefCount5derefEv.exit._ZN9QtPrivate8RefCount5derefEv.exit.thread2_crit_edge.i, label %_ZN7QStringD2Ev.exit

_ZN9QtPrivate8RefCount5derefEv.exit._ZN9QtPrivate8RefCount5derefEv.exit.thread2_crit_edge.i: ; preds = %_ZN9QtPrivate8RefCount5derefEv.exit.i
  %.pre.i = load ptr, ptr %4, align 8
  br label %_ZN9QtPrivate8RefCount5derefEv.exit.thread2.i

_ZN9QtPrivate8RefCount5derefEv.exit.thread2.i:    ; preds = %_ZN9QtPrivate8RefCount5derefEv.exit._ZN9QtPrivate8RefCount5derefEv.exit.thread2_crit_edge.i, %12
  %16 = phi ptr [ %.pre.i, %_ZN9QtPrivate8RefCount5derefEv.exit._ZN9QtPrivate8RefCount5derefEv.exit.thread2_crit_edge.i ], [ %13, %12 ]
  call void @_ZN10QArrayData10deallocateEPS_mm(ptr noundef %16, i64 noundef 2, i64 noundef 8) #26
  br label %_ZN7QStringD2Ev.exit

_ZN7QStringD2Ev.exit:                             ; preds = %12, %_ZN9QtPrivate8RefCount5derefEv.exit.i, %_ZN9QtPrivate8RefCount5derefEv.exit.thread2.i
  ret void
}